target datalayout = "e-m:e-p270:32:32-p271:32:32-p272:64:64-i64:64-i128:128-f80:128-n8:16:32:64-S128"
target triple = "x86_64-pc-linux-gnu"

%class.anon.0 = type { i8 }
%"class.absl::once_flag" = type { %"struct.std::atomic" }
%"struct.std::atomic" = type { %"struct.std::__atomic_base" }
%"struct.std::__atomic_base" = type { i32 }

@_ZN4absl13base_internalL21nominal_cpu_frequencyE = internal global double 1.000000e+00, align 8
@_ZN4absl13base_internalL31init_nominal_cpu_frequency_onceE = internal global { { i32 } } zeroinitializer, align 4

; Function Attrs: noinline noreturn nounwind uwtable
define linkonce_odr hidden void @__clang_call_terminate(ptr noundef %0) #8 comdat {
  %2 = call ptr @__cxa_begin_catch(ptr %0) #16
  call void @_ZSt9terminatev() #17
  unreachable
}

; Function Attrs: mustprogress nounwind uwtable
define linkonce_odr dso_local noundef i32 @_ZStanSt12memory_orderSt23__memory_order_modifier(i32 noundef %0, i32 noundef %1) #2 comdat {
  %3 = alloca i32, align 4
  %4 = alloca i32, align 4
  store i32 %0, ptr %3, align 4, !tbaa !19
  store i32 %1, ptr %4, align 4, !tbaa !23
  %5 = load i32, ptr %3, align 4, !tbaa !19
  %6 = load i32, ptr %4, align 4, !tbaa !23
  %7 = and i32 %5, %6
  ret i32 %7
}

; Function Attrs: alwaysinline mustprogress nounwind uwtable
define linkonce_odr dso_local noundef i32 @_ZNKSt13__atomic_baseIjE4loadESt12memory_order(ptr noundef nonnull align 4 dereferenceable(4) %0, i32 noundef %1) #6 comdat align 2 personality ptr @__gxx_personality_v0 {
  %3 = alloca ptr, align 8
  %4 = alloca i32, align 4
  %5 = alloca i32, align 4
  %6 = alloca i32, align 4
  store ptr %0, ptr %3, align 8, !tbaa !17
  store i32 %1, ptr %4, align 4, !tbaa !19
  %7 = load ptr, ptr %3, align 8
  call void @llvm.lifetime.start.p0(i64 4, ptr %5) #16
  %8 = load i32, ptr %4, align 4, !tbaa !19
  %9 = invoke noundef i32 @_ZStanSt12memory_orderSt23__memory_order_modifier(i32 noundef %8, i32 noundef 65535)
          to label %10 unwind label %27

10:                                               ; preds = %2
  store i32 %9, ptr %5, align 4, !tbaa !19
  br label %11

11:                                               ; preds = %10
  br label %12

12:                                               ; preds = %11
  br label %13

13:                                               ; preds = %12
  br label %14

14:                                               ; preds = %13
  br label %15

15:                                               ; preds = %14
  br label %16

16:                                               ; preds = %15
  %17 = getelementptr inbounds nuw %"struct.std::__atomic_base", ptr %7, i32 0, i32 0
  %18 = load i32, ptr %4, align 4, !tbaa !19
  switch i32 %18, label %19 [
    i32 1, label %21
    i32 2, label %21
    i32 5, label %23
  ]

19:                                               ; preds = %16
  %20 = load atomic i32, ptr %17 monotonic, align 4
  store i32 %20, ptr %6, align 4
  br label %25

21:                                               ; preds = %16, %16
  %22 = load atomic i32, ptr %17 acquire, align 4
  store i32 %22, ptr %6, align 4
  br label %25

23:                                               ; preds = %16
  %24 = load atomic i32, ptr %17 seq_cst, align 4
  store i32 %24, ptr %6, align 4
  br label %25

25:                                               ; preds = %23, %21, %19
  %26 = load i32, ptr %6, align 4, !tbaa !4
  call void @llvm.lifetime.end.p0(i64 4, ptr %5) #16
  ret i32 %26

27:                                               ; preds = %2
  %28 = landingpad { ptr, i32 }
          catch ptr null
  %29 = extractvalue { ptr, i32 } %28, 0
  call void @__clang_call_terminate(ptr %29) #17
  unreachable
}

; Function Attrs: inlinehint mustprogress nounwind uwtable
define linkonce_odr dso_local noundef ptr @_ZN4absl13base_internal11ControlWordEPNS_9once_flagE(ptr noundef %0) #5 comdat {
  %2 = alloca ptr, align 8
  store ptr %0, ptr %2, align 8, !tbaa !8
  %3 = load ptr, ptr %2, align 8, !tbaa !8
  %4 = getelementptr inbounds nuw %"class.absl::once_flag", ptr %3, i32 0, i32 0
  ret ptr %4
}

; Function Attrs: mustprogress uwtable
define internal void @"_ZN4absl13base_internal16LowLevelCallOnceIZNS0_19NominalCPUFrequencyEvE3$_0JEEEvPNS_9once_flagEOT_DpOT0_"(ptr noundef %0, ptr noundef nonnull align 1 dereferenceable(1) %1) #0 {
  %3 = alloca ptr, align 8
  %4 = alloca ptr, align 8
  %5 = alloca ptr, align 8
  %6 = alloca i32, align 4
  store ptr %0, ptr %3, align 8, !tbaa !8
  store ptr %1, ptr %4, align 8, !tbaa !11
  call void @llvm.lifetime.start.p0(i64 8, ptr %5) #16
  %7 = load ptr, ptr %3, align 8, !tbaa !8
  %8 = call noundef ptr @_ZN4absl13base_internal11ControlWordEPNS_9once_flagE(ptr noundef %7)
  store ptr %8, ptr %5, align 8, !tbaa !12
  call void @llvm.lifetime.start.p0(i64 4, ptr %6) #16
  %9 = load ptr, ptr %5, align 8, !tbaa !12
  %10 = call noundef i32 @_ZNKSt13__atomic_baseIjE4loadESt12memory_order(ptr noundef nonnull align 4 dereferenceable(4) %9, i32 noundef 2) #16
  store i32 %10, ptr %6, align 4, !tbaa !4
  %11 = load i32, ptr %6, align 4, !tbaa !4
  %12 = icmp ne i32 %11, 221
  %13 = zext i1 %12 to i64
  %14 = call i64 @llvm.expect.i64(i64 %13, i64 0)
  %15 = icmp ne i64 %14, 0
  br i1 %15, label %16, label %19

16:                                               ; preds = %2
  %17 = load ptr, ptr %5, align 8, !tbaa !12
  %18 = load ptr, ptr %4, align 8, !tbaa !11
  call void @"_ZN4absl13base_internal12CallOnceImplIZNS0_19NominalCPUFrequencyEvE3$_0JEEEvPSt6atomicIjENS0_14SchedulingModeEOT_DpOT0_"(ptr noundef %17, i32 noundef 0, ptr noundef nonnull align 1 dereferenceable(1) %18)
  br label %19

19:                                               ; preds = %16, %2
  call void @llvm.lifetime.end.p0(i64 4, ptr %6) #16
  call void @llvm.lifetime.end.p0(i64 8, ptr %5) #16
  ret void
}

; Function Attrs: mustprogress uwtable
define dso_local noundef double @_ZN4absl13base_internal19NominalCPUFrequencyEv() #0 {
  %1 = alloca %class.anon.0, align 1
  call void @llvm.lifetime.start.p0(i64 1, ptr %1) #16
  call void @"_ZN4absl13base_internal16LowLevelCallOnceIZNS0_19NominalCPUFrequencyEvE3$_0JEEEvPNS_9once_flagEOT_DpOT0_"(ptr noundef @_ZN4absl13base_internalL31init_nominal_cpu_frequency_onceE, ptr noundef nonnull align 1 dereferenceable(1) %1)
  call void @llvm.lifetime.end.p0(i64 1, ptr %1) #16
  %2 = load double, ptr @_ZN4absl13base_internalL21nominal_cpu_frequencyE, align 8, !tbaa !14
  ret double %2
}