; Function Attrs: mustprogress uwtable
define dso_local noundef double @_ZN4absl13base_internal19NominalCPUFrequencyEv() local_unnamed_addr #0 personality ptr @__gxx_personality_v0 {
  %1 = load atomic i32, ptr @_ZN4absl13base_internalL31init_nominal_cpu_frequency_onceE acquire, align 4
  %.not.i = icmp eq i32 %1, 221
  br i1 %.not.i, label %"_ZN4absl13base_internal16LowLevelCallOnceIZNS0_19NominalCPUFrequencyEvE3$_0JEEEvPNS_9once_flagEOT_DpOT0_.exit", label %2, !prof !4

2:                                                ; preds = %0
  tail call fastcc void @"_ZN4absl13base_internal12CallOnceImplIZNS0_19NominalCPUFrequencyEvE3$_0JEEEvPSt6atomicIjENS0_14SchedulingModeEOT_DpOT0_"(ptr noundef nonnull @_ZN4absl13base_internalL31init_nominal_cpu_frequency_onceE)
  br label %"_ZN4absl13base_internal16LowLevelCallOnceIZNS0_19NominalCPUFrequencyEvE3$_0JEEEvPNS_9once_flagEOT_DpOT0_.exit"

"_ZN4absl13base_internal16LowLevelCallOnceIZNS0_19NominalCPUFrequencyEvE3$_0JEEEvPNS_9once_flagEOT_DpOT0_.exit": ; preds = %0, %2
  %3 = load double, ptr @_ZN4absl13base_internalL21nominal_cpu_frequencyE, align 8, !tbaa !9
  ret double %3
}